; Function Attrs: mustprogress nounwind uwtable
define dso_local void @_ZN4node10BaseObject17increase_refcountEv(ptr noundef nonnull align 8 dereferenceable(32) %this) local_unnamed_addr #3 align 2 {
entry:
  %pointer_data_.i.i = getelementptr inbounds i8, ptr %this, i64 24
  %0 = load ptr, ptr %pointer_data_.i.i, align 8
  %cmp.i3.not.i = icmp eq ptr %0, null
  br i1 %cmp.i3.not.i, label %if.then.i, label %_ZN4node10BaseObject12pointer_dataEv.exit

if.then.i:                                        ; preds = %entry
  %call2.i1 = tail call noalias noundef nonnull dereferenceable(24) ptr @_Znwm(i64 noundef 24) #20
  %self.i.i = getelementptr inbounds i8, ptr %call2.i1, i64 16
  %persistent_handle_.i = getelementptr inbounds i8, ptr %this, i64 8
  tail call void @llvm.memset.p0.i64(ptr noundef nonnull align 8 dereferenceable(16) %call2.i1, i8 0, i64 16, i1 false)
  %1 = load ptr, ptr %persistent_handle_.i, align 8
  %cmp.i.i.i = icmp eq ptr %1, null
  br i1 %cmp.i.i.i, label %_ZN4node10BaseObject12pointer_dataEv.exit.thread, label %if.end.i.i

if.end.i.i:                                       ; preds = %if.then.i
  %add.ptr.i.i = getelementptr inbounds i8, ptr %1, i64 11
  %2 = load i8, ptr %add.ptr.i.i, align 1
  %3 = and i8 %2, 3
  %cmp.i.i = icmp eq i8 %3, 2
  %4 = zext i1 %cmp.i.i to i8
  br label %_ZN4node10BaseObject12pointer_dataEv.exit.thread

_ZN4node10BaseObject12pointer_dataEv.exit.thread: ; preds = %if.then.i, %if.end.i.i
  %retval.i.0.i = phi i8 [ %4, %if.end.i.i ], [ 0, %if.then.i ]
  %wants_weak_jsobj.i = getelementptr inbounds i8, ptr %call2.i1, i64 8
  store i8 %retval.i.0.i, ptr %wants_weak_jsobj.i, align 8
  store ptr %this, ptr %self.i.i, align 8
  store ptr %call2.i1, ptr %pointer_data_.i.i, align 8
  store i32 1, ptr %call2.i1, align 8
  br label %land.lhs.true

_ZN4node10BaseObject12pointer_dataEv.exit:        ; preds = %entry
  %.pre = load i32, ptr %0, align 8
  %inc = add i32 %.pre, 1
  store i32 %inc, ptr %0, align 8
  %cmp = icmp eq i32 %.pre, 0
  br i1 %cmp, label %land.lhs.true, label %if.end

land.lhs.true:                                    ; preds = %_ZN4node10BaseObject12pointer_dataEv.exit.thread, %_ZN4node10BaseObject12pointer_dataEv.exit
  %persistent_handle_ = getelementptr inbounds i8, ptr %this, i64 8
  %5 = load ptr, ptr %persistent_handle_, align 8
  %cmp.i = icmp eq ptr %5, null
  br i1 %cmp.i, label %if.end, label %if.then

if.then:                                          ; preds = %land.lhs.true
  %call2.i = tail call noundef ptr @_ZN2v812api_internal9ClearWeakEPm(ptr noundef nonnull %5) #17
  br label %if.end

if.end:                                           ; preds = %if.then, %land.lhs.true, %_ZN4node10BaseObject12pointer_dataEv.exit
  ret void
}